target datalayout = "e-m:e-p270:32:32-p271:32:32-p272:64:64-i64:64-i128:128-f80:128-n8:16:32:64-S128"
target triple = "x86_64-pc-linux-gnu"

@MaxBackends = external global i32, align 4
@max_prepared_xacts = external global i32, align 4
@multixact_offset_buffers = external global i32, align 4
@multixact_member_buffers = external global i32, align 4

; Function Attrs: nounwind uwtable
define dso_local i64 @MultiXactShmemSize() #0 {
  %1 = alloca i64, align 8
  call void @llvm.lifetime.start.p0(i64 8, ptr %1) #9
  %2 = load i32, ptr @MaxBackends, align 4
  %3 = load i32, ptr @max_prepared_xacts, align 4
  %4 = add i32 %2, %3
  %5 = sext i32 %4 to i64
  %6 = call i64 @mul_size(i64 noundef 8, i64 noundef %5)
  %7 = call i64 @add_size(i64 noundef 60, i64 noundef %6)
  store i64 %7, ptr %1, align 8
  %8 = load i64, ptr %1, align 8
  %9 = load i32, ptr @multixact_offset_buffers, align 4
  %10 = call i64 @SimpleLruShmemSize(i32 noundef %9, i32 noundef 0)
  %11 = call i64 @add_size(i64 noundef %8, i64 noundef %10)
  store i64 %11, ptr %1, align 8
  %12 = load i64, ptr %1, align 8
  %13 = load i32, ptr @multixact_member_buffers, align 4
  %14 = call i64 @SimpleLruShmemSize(i32 noundef %13, i32 noundef 0)
  %15 = call i64 @add_size(i64 noundef %12, i64 noundef %14)
  store i64 %15, ptr %1, align 8
  %16 = load i64, ptr %1, align 8
  call void @llvm.lifetime.end.p0(i64 8, ptr %1) #9
  ret i64 %16
}