; Function Attrs: nounwind uwtable
define dso_local i64 @MultiXactShmemSize() local_unnamed_addr #0 {
  %1 = load i32, ptr @MaxBackends, align 4
  %2 = load i32, ptr @max_prepared_xacts, align 4
  %3 = add i32 %2, %1
  %4 = sext i32 %3 to i64
  %5 = tail call i64 @mul_size(i64 noundef 8, i64 noundef %4) #13
  %6 = tail call i64 @add_size(i64 noundef 60, i64 noundef %5) #13
  %7 = load i32, ptr @multixact_offset_buffers, align 4
  %8 = tail call i64 @SimpleLruShmemSize(i32 noundef %7, i32 noundef 0) #13
  %9 = tail call i64 @add_size(i64 noundef %6, i64 noundef %8) #13
  %10 = load i32, ptr @multixact_member_buffers, align 4
  %11 = tail call i64 @SimpleLruShmemSize(i32 noundef %10, i32 noundef 0) #13
  %12 = tail call i64 @add_size(i64 noundef %9, i64 noundef %11) #13
  ret i64 %12
}